target datalayout = "e-m:e-p270:32:32-p271:32:32-p272:64:64-i64:64-i128:128-f80:128-n8:16:32:64-S128"
target triple = "x86_64-pc-linux-gnu"

; Function Attrs: nounwind uwtable
define internal ptr @rsa_newdata(ptr noundef %0) #0 {
  %2 = alloca ptr, align 8
  %3 = alloca ptr, align 8
  %4 = alloca ptr, align 8
  %5 = alloca ptr, align 8
  %6 = alloca i32, align 4
  store ptr %0, ptr %3, align 8, !tbaa !3
  call void @llvm.lifetime.start.p0(i64 8, ptr %4) #6
  %7 = load ptr, ptr %3, align 8, !tbaa !3
  %8 = call ptr @ossl_prov_ctx_get0_libctx(ptr noundef %7)
  store ptr %8, ptr %4, align 8, !tbaa !7
  call void @llvm.lifetime.start.p0(i64 8, ptr %5) #6
  %9 = call i32 @ossl_prov_is_running()
  %10 = icmp ne i32 %9, 0
  br i1 %10, label %12, label %11

11:                                               ; preds = %1
  store ptr null, ptr %2, align 8
  store i32 1, ptr %6, align 4
  br label %22

12:                                               ; preds = %1
  %13 = load ptr, ptr %4, align 8, !tbaa !7
  %14 = call ptr @ossl_rsa_new_with_ctx(ptr noundef %13)
  store ptr %14, ptr %5, align 8, !tbaa !9
  %15 = load ptr, ptr %5, align 8, !tbaa !9
  %16 = icmp ne ptr %15, null
  br i1 %16, label %17, label %20

17:                                               ; preds = %12
  %18 = load ptr, ptr %5, align 8, !tbaa !9
  call void @RSA_clear_flags(ptr noundef %18, i32 noundef 61440)
  %19 = load ptr, ptr %5, align 8, !tbaa !9
  call void @RSA_set_flags(ptr noundef %19, i32 noundef 0)
  br label %20

20:                                               ; preds = %17, %12
  %21 = load ptr, ptr %5, align 8, !tbaa !9
  store ptr %21, ptr %2, align 8
  store i32 1, ptr %6, align 4
  br label %22

22:                                               ; preds = %20, %11
  call void @llvm.lifetime.end.p0(i64 8, ptr %5) #6
  call void @llvm.lifetime.end.p0(i64 8, ptr %4) #6
  %23 = load ptr, ptr %2, align 8
  ret ptr %23
}