; Function Attrs: nounwind uwtable
define internal ptr @rsa_newdata(ptr noundef %0) #0 {
  %2 = tail call ptr @ossl_prov_ctx_get0_libctx(ptr noundef %0) #6
  %3 = tail call i32 @ossl_prov_is_running() #6
  %.not = icmp eq i32 %3, 0
  br i1 %.not, label %7, label %4

4:                                                ; preds = %1
  %5 = tail call ptr @ossl_rsa_new_with_ctx(ptr noundef %2) #6
  %.not8 = icmp eq ptr %5, null
  br i1 %.not8, label %7, label %6

6:                                                ; preds = %4
  tail call void @RSA_clear_flags(ptr noundef nonnull %5, i32 noundef 61440) #6
  tail call void @RSA_set_flags(ptr noundef nonnull %5, i32 noundef 0) #6
  br label %7

7:                                                ; preds = %4, %6, %1
  %.0 = phi ptr [ null, %1 ], [ %5, %6 ], [ null, %4 ]
  ret ptr %.0
}